target datalayout = "e-m:e-p270:32:32-p271:32:32-p272:64:64-i64:64-i128:128-f80:128-n8:16:32:64-S128"
target triple = "x86_64-pc-linux-gnu"

%struct.Aig_RMan_t_ = type { i32, ptr, i32, ptr, i32, ptr, ptr, [128 x i32], [128 x i32], [128 x i32], [128 x i32], [24 x %struct.Aig_VSig_t_], [12 x i8], [12 x i8], [13 x i32], i32, i32, i32, i32, i32 }
%struct.Aig_VSig_t_ = type { i32, [12 x i32] }
%struct.Aig_Tru_t_ = type { ptr, i32, i32, [0 x i32] }

@Aig_RManTableLookup.s_Primes = internal global [16 x i32] [i32 1291, i32 1699, i32 1999, i32 2357, i32 2953, i32 3313, i32 3907, i32 4177, i32 4831, i32 5147, i32 5647, i32 6343, i32 6899, i32 7103, i32 7873, i32 8147], align 16

; Function Attrs: inlinehint nounwind uwtable
define internal i32 @Kit_TruthIsEqual(ptr noundef %0, ptr noundef %1, i32 noundef %2) #5 {
  %4 = alloca i32, align 4
  %5 = alloca ptr, align 8
  %6 = alloca ptr, align 8
  %7 = alloca i32, align 4
  %8 = alloca i32, align 4
  %9 = alloca i32, align 4
  store ptr %0, ptr %5, align 8, !tbaa !29
  store ptr %1, ptr %6, align 8, !tbaa !29
  store i32 %2, ptr %7, align 4, !tbaa !25
  call void @llvm.lifetime.start.p0(i64 4, ptr %8) #10
  %10 = load i32, ptr %7, align 4, !tbaa !25
  %11 = call i32 @Kit_TruthWordNum(i32 noundef %10)
  %12 = sub nsw i32 %11, 1
  store i32 %12, ptr %8, align 4, !tbaa !25
  br label %13

13:                                               ; preds = %30, %3
  %14 = load i32, ptr %8, align 4, !tbaa !25
  %15 = icmp sge i32 %14, 0
  br i1 %15, label %16, label %33

16:                                               ; preds = %13
  %17 = load ptr, ptr %5, align 8, !tbaa !29
  %18 = load i32, ptr %8, align 4, !tbaa !25
  %19 = sext i32 %18 to i64
  %20 = getelementptr inbounds i32, ptr %17, i64 %19
  %21 = load i32, ptr %20, align 4, !tbaa !25
  %22 = load ptr, ptr %6, align 8, !tbaa !29
  %23 = load i32, ptr %8, align 4, !tbaa !25
  %24 = sext i32 %23 to i64
  %25 = getelementptr inbounds i32, ptr %22, i64 %24
  %26 = load i32, ptr %25, align 4, !tbaa !25
  %27 = icmp ne i32 %21, %26
  br i1 %27, label %28, label %29

28:                                               ; preds = %16
  store i32 0, ptr %4, align 4
  store i32 1, ptr %9, align 4
  br label %34

29:                                               ; preds = %16
  br label %30

30:                                               ; preds = %29
  %31 = load i32, ptr %8, align 4, !tbaa !25
  %32 = add nsw i32 %31, -1
  store i32 %32, ptr %8, align 4, !tbaa !25
  br label %13, !llvm.loop !38

33:                                               ; preds = %13
  store i32 1, ptr %4, align 4
  store i32 1, ptr %9, align 4
  br label %34

34:                                               ; preds = %33, %28
  call void @llvm.lifetime.end.p0(i64 4, ptr %8) #10
  %35 = load i32, ptr %4, align 4
  ret i32 %35
}

; Function Attrs: inlinehint nounwind uwtable
define internal i32 @Aig_RManTableHash(ptr noundef %0, i32 noundef %1, i32 noundef %2, ptr noundef %3) #5 {
  %5 = alloca ptr, align 8
  %6 = alloca i32, align 4
  %7 = alloca i32, align 4
  %8 = alloca ptr, align 8
  %9 = alloca i32, align 4
  %10 = alloca i32, align 4
  %11 = alloca i32, align 4
  store ptr %0, ptr %5, align 8, !tbaa !29
  store i32 %1, ptr %6, align 4, !tbaa !25
  store i32 %2, ptr %7, align 4, !tbaa !25
  store ptr %3, ptr %8, align 8, !tbaa !29
  call void @llvm.lifetime.start.p0(i64 4, ptr %9) #10
  call void @llvm.lifetime.start.p0(i64 4, ptr %10) #10
  %12 = load i32, ptr %6, align 4, !tbaa !25
  %13 = call i32 @Kit_TruthWordNum(i32 noundef %12)
  store i32 %13, ptr %10, align 4, !tbaa !25
  call void @llvm.lifetime.start.p0(i64 4, ptr %11) #10
  store i32 0, ptr %11, align 4, !tbaa !25
  store i32 0, ptr %9, align 4, !tbaa !25
  br label %14

14:                                               ; preds = %33, %4
  %15 = load i32, ptr %9, align 4, !tbaa !25
  %16 = load i32, ptr %10, align 4, !tbaa !25
  %17 = icmp slt i32 %15, %16
  br i1 %17, label %18, label %36

18:                                               ; preds = %14
  %19 = load ptr, ptr %5, align 8, !tbaa !29
  %20 = load i32, ptr %9, align 4, !tbaa !25
  %21 = sext i32 %20 to i64
  %22 = getelementptr inbounds i32, ptr %19, i64 %21
  %23 = load i32, ptr %22, align 4, !tbaa !25
  %24 = load ptr, ptr %8, align 8, !tbaa !29
  %25 = load i32, ptr %9, align 4, !tbaa !25
  %26 = and i32 %25, 15
  %27 = sext i32 %26 to i64
  %28 = getelementptr inbounds i32, ptr %24, i64 %27
  %29 = load i32, ptr %28, align 4, !tbaa !25
  %30 = mul i32 %23, %29
  %31 = load i32, ptr %11, align 4, !tbaa !25
  %32 = xor i32 %31, %30
  store i32 %32, ptr %11, align 4, !tbaa !25
  br label %33

33:                                               ; preds = %18
  %34 = load i32, ptr %9, align 4, !tbaa !25
  %35 = add nsw i32 %34, 1
  store i32 %35, ptr %9, align 4, !tbaa !25
  br label %14, !llvm.loop !37

36:                                               ; preds = %14
  %37 = load i32, ptr %11, align 4, !tbaa !25
  %38 = load i32, ptr %7, align 4, !tbaa !25
  %39 = urem i32 %37, %38
  call void @llvm.lifetime.end.p0(i64 4, ptr %11) #10
  call void @llvm.lifetime.end.p0(i64 4, ptr %10) #10
  call void @llvm.lifetime.end.p0(i64 4, ptr %9) #10
  ret i32 %39
}

; Function Attrs: inlinehint nounwind uwtable
define internal i32 @Kit_TruthWordNum(i32 noundef %0) #5 {
  %2 = alloca i32, align 4
  store i32 %0, ptr %2, align 4, !tbaa !25
  %3 = load i32, ptr %2, align 4, !tbaa !25
  %4 = icmp sle i32 %3, 5
  br i1 %4, label %5, label %6

5:                                                ; preds = %1
  br label %10

6:                                                ; preds = %1
  %7 = load i32, ptr %2, align 4, !tbaa !25
  %8 = sub nsw i32 %7, 5
  %9 = shl i32 1, %8
  br label %10

10:                                               ; preds = %6, %5
  %11 = phi i32 [ 1, %5 ], [ %9, %6 ]
  ret i32 %11
}

; Function Attrs: nounwind uwtable
define ptr @Aig_RManTableLookup(ptr noundef %0, ptr noundef %1, i32 noundef %2) #0 {
  %4 = alloca ptr, align 8
  %5 = alloca ptr, align 8
  %6 = alloca ptr, align 8
  %7 = alloca i32, align 4
  %8 = alloca ptr, align 8
  %9 = alloca ptr, align 8
  %10 = alloca i32, align 4
  store ptr %0, ptr %5, align 8, !tbaa !3
  store ptr %1, ptr %6, align 8, !tbaa !29
  store i32 %2, ptr %7, align 4, !tbaa !25
  call void @llvm.lifetime.start.p0(i64 8, ptr %8) #10
  call void @llvm.lifetime.start.p0(i64 8, ptr %9) #10
  %11 = load ptr, ptr %5, align 8, !tbaa !3
  %12 = getelementptr inbounds nuw %struct.Aig_RMan_t_, ptr %11, i32 0, i32 3
  %13 = load ptr, ptr %12, align 8, !tbaa !17
  %14 = load ptr, ptr %6, align 8, !tbaa !29
  %15 = load i32, ptr %7, align 4, !tbaa !25
  %16 = load ptr, ptr %5, align 8, !tbaa !3
  %17 = getelementptr inbounds nuw %struct.Aig_RMan_t_, ptr %16, i32 0, i32 2
  %18 = load i32, ptr %17, align 8, !tbaa !16
  %19 = call i32 @Aig_RManTableHash(ptr noundef %14, i32 noundef %15, i32 noundef %18, ptr noundef @Aig_RManTableLookup.s_Primes)
  %20 = sext i32 %19 to i64
  %21 = getelementptr inbounds ptr, ptr %13, i64 %20
  store ptr %21, ptr %8, align 8, !tbaa !31
  %22 = load ptr, ptr %8, align 8, !tbaa !31
  %23 = load ptr, ptr %22, align 8, !tbaa !32
  store ptr %23, ptr %9, align 8, !tbaa !32
  br label %24

24:                                               ; preds = %38, %3
  %25 = load ptr, ptr %9, align 8, !tbaa !32
  %26 = icmp ne ptr %25, null
  br i1 %26, label %27, label %44

27:                                               ; preds = %24
  %28 = load ptr, ptr %9, align 8, !tbaa !32
  %29 = getelementptr inbounds nuw %struct.Aig_Tru_t_, ptr %28, i32 0, i32 3
  %30 = getelementptr inbounds [0 x i32], ptr %29, i64 0, i64 0
  %31 = load ptr, ptr %6, align 8, !tbaa !29
  %32 = load i32, ptr %7, align 4, !tbaa !25
  %33 = call i32 @Kit_TruthIsEqual(ptr noundef %30, ptr noundef %31, i32 noundef %32)
  %34 = icmp ne i32 %33, 0
  br i1 %34, label %35, label %37

35:                                               ; preds = %27
  %36 = load ptr, ptr %8, align 8, !tbaa !31
  store ptr %36, ptr %4, align 8
  store i32 1, ptr %10, align 4
  br label %46

37:                                               ; preds = %27
  br label %38

38:                                               ; preds = %37
  %39 = load ptr, ptr %9, align 8, !tbaa !32
  %40 = getelementptr inbounds nuw %struct.Aig_Tru_t_, ptr %39, i32 0, i32 0
  store ptr %40, ptr %8, align 8, !tbaa !31
  %41 = load ptr, ptr %9, align 8, !tbaa !32
  %42 = getelementptr inbounds nuw %struct.Aig_Tru_t_, ptr %41, i32 0, i32 0
  %43 = load ptr, ptr %42, align 8, !tbaa !34
  store ptr %43, ptr %9, align 8, !tbaa !32
  br label %24, !llvm.loop !36

44:                                               ; preds = %24
  %45 = load ptr, ptr %8, align 8, !tbaa !31
  store ptr %45, ptr %4, align 8
  store i32 1, ptr %10, align 4
  br label %46

46:                                               ; preds = %44, %35
  call void @llvm.lifetime.end.p0(i64 8, ptr %9) #10
  call void @llvm.lifetime.end.p0(i64 8, ptr %8) #10
  %47 = load ptr, ptr %4, align 8
  ret ptr %47
}

; Function Attrs: nounwind uwtable
define i32 @Aig_RManTableFindOrAdd(ptr noundef %0, ptr noundef %1, i32 noundef %2) #0 {
  %4 = alloca i32, align 4
  %5 = alloca ptr, align 8
  %6 = alloca ptr, align 8
  %7 = alloca i32, align 4
  %8 = alloca ptr, align 8
  %9 = alloca ptr, align 8
  %10 = alloca i32, align 4
  %11 = alloca i32, align 4
  store ptr %0, ptr %5, align 8, !tbaa !3
  store ptr %1, ptr %6, align 8, !tbaa !29
  store i32 %2, ptr %7, align 4, !tbaa !25
  call void @llvm.lifetime.start.p0(i64 8, ptr %8) #10
  call void @llvm.lifetime.start.p0(i64 8, ptr %9) #10
  call void @llvm.lifetime.start.p0(i64 4, ptr %10) #10
  %12 = load ptr, ptr %5, align 8, !tbaa !3
  %13 = load ptr, ptr %6, align 8, !tbaa !29
  %14 = load i32, ptr %7, align 4, !tbaa !25
  %15 = call ptr @Aig_RManTableLookup(ptr noundef %12, ptr noundef %13, i32 noundef %14)
  store ptr %15, ptr %8, align 8, !tbaa !31
  %16 = load ptr, ptr %8, align 8, !tbaa !31
  %17 = load ptr, ptr %16, align 8, !tbaa !32
  %18 = icmp ne ptr %17, null
  br i1 %18, label %19, label %30

19:                                               ; preds = %3
  %20 = load ptr, ptr %8, align 8, !tbaa !31
  %21 = load ptr, ptr %20, align 8, !tbaa !32
  %22 = getelementptr inbounds nuw %struct.Aig_Tru_t_, ptr %21, i32 0, i32 2
  %23 = load i32, ptr %22, align 4
  %24 = and i32 %23, 134217727
  %25 = add i32 %24, 1
  %26 = load i32, ptr %22, align 4
  %27 = and i32 %25, 134217727
  %28 = and i32 %26, -134217728
  %29 = or i32 %28, %27
  store i32 %29, ptr %22, align 4
  store i32 0, ptr %4, align 4
  store i32 1, ptr %11, align 4
  br label %84

30:                                               ; preds = %3
  %31 = load i32, ptr %7, align 4, !tbaa !25
  %32 = call i32 @Kit_TruthWordNum(i32 noundef %31)
  %33 = sext i32 %32 to i64
  %34 = mul i64 4, %33
  %35 = add i64 16, %34
  %36 = trunc i64 %35 to i32
  store i32 %36, ptr %10, align 4, !tbaa !25
  %37 = load ptr, ptr %5, align 8, !tbaa !3
  %38 = getelementptr inbounds nuw %struct.Aig_RMan_t_, ptr %37, i32 0, i32 4
  %39 = load i32, ptr %38, align 8, !tbaa !43
  %40 = load ptr, ptr %5, align 8, !tbaa !3
  %41 = getelementptr inbounds nuw %struct.Aig_RMan_t_, ptr %40, i32 0, i32 2
  %42 = load i32, ptr %41, align 8, !tbaa !16
  %43 = mul nsw i32 3, %42
  %44 = icmp eq i32 %39, %43
  br i1 %44, label %45, label %47

45:                                               ; preds = %30
  %46 = load ptr, ptr %5, align 8, !tbaa !3
  call void @Aig_RManTableResize(ptr noundef %46)
  br label %47

47:                                               ; preds = %45, %30
  %48 = load ptr, ptr %5, align 8, !tbaa !3
  %49 = getelementptr inbounds nuw %struct.Aig_RMan_t_, ptr %48, i32 0, i32 5
  %50 = load ptr, ptr %49, align 8, !tbaa !18
  %51 = load i32, ptr %10, align 4, !tbaa !25
  %52 = call ptr @Aig_MmFlexEntryFetch(ptr noundef %50, i32 noundef %51)
  store ptr %52, ptr %9, align 8, !tbaa !32
  %53 = load ptr, ptr %5, align 8, !tbaa !3
  %54 = getelementptr inbounds nuw %struct.Aig_RMan_t_, ptr %53, i32 0, i32 4
  %55 = load i32, ptr %54, align 8, !tbaa !43
  %56 = add nsw i32 %55, 1
  store i32 %56, ptr %54, align 8, !tbaa !43
  %57 = load ptr, ptr %9, align 8, !tbaa !32
  %58 = getelementptr inbounds nuw %struct.Aig_Tru_t_, ptr %57, i32 0, i32 1
  store i32 %55, ptr %58, align 8, !tbaa !44
  %59 = load i32, ptr %7, align 4, !tbaa !25
  %60 = load ptr, ptr %9, align 8, !tbaa !32
  %61 = getelementptr inbounds nuw %struct.Aig_Tru_t_, ptr %60, i32 0, i32 2
  %62 = load i32, ptr %61, align 4
  %63 = and i32 %59, 31
  %64 = shl i32 %63, 27
  %65 = and i32 %62, 134217727
  %66 = or i32 %65, %64
  store i32 %66, ptr %61, align 4
  %67 = load ptr, ptr %9, align 8, !tbaa !32
  %68 = getelementptr inbounds nuw %struct.Aig_Tru_t_, ptr %67, i32 0, i32 2
  %69 = load i32, ptr %68, align 4
  %70 = and i32 %69, -134217728
  %71 = or i32 %70, 1
  store i32 %71, ptr %68, align 4
  %72 = load ptr, ptr %9, align 8, !tbaa !32
  %73 = getelementptr inbounds nuw %struct.Aig_Tru_t_, ptr %72, i32 0, i32 0
  store ptr null, ptr %73, align 8, !tbaa !34
  %74 = load ptr, ptr %9, align 8, !tbaa !32
  %75 = getelementptr inbounds nuw %struct.Aig_Tru_t_, ptr %74, i32 0, i32 3
  %76 = getelementptr inbounds [0 x i32], ptr %75, i64 0, i64 0
  %77 = load ptr, ptr %6, align 8, !tbaa !29
  %78 = load i32, ptr %7, align 4, !tbaa !25
  %79 = call i32 @Kit_TruthWordNum(i32 noundef %78)
  %80 = sext i32 %79 to i64
  %81 = mul i64 4, %80
  call void @llvm.memcpy.p0.p0.i64(ptr align 8 %76, ptr align 4 %77, i64 %81, i1 false)
  %82 = load ptr, ptr %9, align 8, !tbaa !32
  %83 = load ptr, ptr %8, align 8, !tbaa !31
  store ptr %82, ptr %83, align 8, !tbaa !32
  store i32 1, ptr %4, align 4
  store i32 1, ptr %11, align 4
  br label %84

84:                                               ; preds = %47, %19
  call void @llvm.lifetime.end.p0(i64 4, ptr %10) #10
  call void @llvm.lifetime.end.p0(i64 8, ptr %9) #10
  call void @llvm.lifetime.end.p0(i64 8, ptr %8) #10
  %85 = load i32, ptr %4, align 4
  ret i32 %85
}