; Function Attrs: nounwind uwtable
define range(i32 0, 2) i32 @Aig_RManTableFindOrAdd(ptr noundef captures(none) %0, ptr noundef readonly captures(none) %1, i32 noundef %2) local_unnamed_addr #0 {
  %4 = getelementptr inbounds nuw i8, ptr %0, i64 24
  %5 = load ptr, ptr %4, align 8, !tbaa !18
  %6 = getelementptr inbounds nuw i8, ptr %0, i64 16
  %7 = load i32, ptr %6, align 8, !tbaa !17
  %8 = icmp slt i32 %2, 6
  %9 = add nsw i32 %2, -5
  %10 = shl nuw i32 1, %9
  %11 = select i1 %8, i32 1, i32 %10
  %12 = icmp sgt i32 %11, 0
  br i1 %12, label %.lr.ph.preheader.i.i, label %Aig_RManTableHash.exit.i

.lr.ph.preheader.i.i:                             ; preds = %3
  %wide.trip.count.i.i = zext nneg i32 %11 to i64
  br label %.lr.ph.i.i

.lr.ph.i.i:                                       ; preds = %.lr.ph.i.i, %.lr.ph.preheader.i.i
  %indvars.iv.i.i = phi i64 [ 0, %.lr.ph.preheader.i.i ], [ %indvars.iv.next.i.i, %.lr.ph.i.i ]
  %.02.i.i = phi i32 [ 0, %.lr.ph.preheader.i.i ], [ %19, %.lr.ph.i.i ]
  %13 = getelementptr inbounds nuw i32, ptr %1, i64 %indvars.iv.i.i
  %14 = load i32, ptr %13, align 4, !tbaa !24
  %15 = and i64 %indvars.iv.i.i, 15
  %16 = getelementptr inbounds nuw i32, ptr @Aig_RManTableLookup.s_Primes, i64 %15
  %17 = load i32, ptr %16, align 4, !tbaa !24
  %18 = mul i32 %17, %14
  %19 = xor i32 %18, %.02.i.i
  %indvars.iv.next.i.i = add nuw nsw i64 %indvars.iv.i.i, 1
  %exitcond.not.i.i = icmp eq i64 %indvars.iv.next.i.i, %wide.trip.count.i.i
  br i1 %exitcond.not.i.i, label %Aig_RManTableHash.exit.i, label %.lr.ph.i.i, !llvm.loop !25

Aig_RManTableHash.exit.i:                         ; preds = %.lr.ph.i.i, %3
  %.0.lcssa.i.i = phi i32 [ 0, %3 ], [ %19, %.lr.ph.i.i ]
  %20 = urem i32 %.0.lcssa.i.i, %7
  %21 = sext i32 %20 to i64
  %22 = getelementptr inbounds ptr, ptr %5, i64 %21
  %.022.i = load ptr, ptr %22, align 8, !tbaa !26
  %.not23.i = icmp eq ptr %.022.i, null
  br i1 %.not23.i, label %Aig_RManTableLookup.exit.thread, label %.lr.ph.i

.lr.ph.i:                                         ; preds = %Aig_RManTableHash.exit.i
  %23 = zext i32 %11 to i64
  br label %24

24:                                               ; preds = %Kit_TruthIsEqual.exit.i, %.lr.ph.i
  %.pr = phi ptr [ %.022.i, %.lr.ph.i ], [ %.0.i, %Kit_TruthIsEqual.exit.i ]
  %25 = getelementptr inbounds nuw i8, ptr %.pr, i64 16
  br label %select.unfold.i.i

select.unfold.i.i:                                ; preds = %28, %24
  %indvars.iv.i16.i = phi i64 [ %23, %24 ], [ %29, %28 ]
  %26 = trunc nuw i64 %indvars.iv.i16.i to i32
  %27 = icmp sgt i32 %26, 0
  br i1 %27, label %28, label %Aig_RManTableLookup.exit

28:                                               ; preds = %select.unfold.i.i
  %29 = add nsw i64 %indvars.iv.i16.i, -1
  %30 = getelementptr inbounds nuw i32, ptr %25, i64 %29
  %31 = load i32, ptr %30, align 4, !tbaa !24
  %32 = getelementptr inbounds nuw i32, ptr %1, i64 %29
  %33 = load i32, ptr %32, align 4, !tbaa !24
  %.not.i.i = icmp eq i32 %31, %33
  br i1 %.not.i.i, label %select.unfold.i.i, label %Kit_TruthIsEqual.exit.i, !llvm.loop !28

Kit_TruthIsEqual.exit.i:                          ; preds = %28
  %.0.i = load ptr, ptr %.pr, align 8, !tbaa !26
  %.not.i = icmp eq ptr %.0.i, null
  br i1 %.not.i, label %Aig_RManTableLookup.exit.thread, label %24, !llvm.loop !29

Aig_RManTableLookup.exit:                         ; preds = %select.unfold.i.i
  %34 = getelementptr inbounds nuw i8, ptr %.pr, i64 12
  %35 = load i32, ptr %34, align 4
  %36 = add i32 %35, 1
  %37 = and i32 %36, 134217727
  %38 = and i32 %35, -134217728
  %39 = or disjoint i32 %37, %38
  store i32 %39, ptr %34, align 4
  br label %60

Aig_RManTableLookup.exit.thread:                  ; preds = %Kit_TruthIsEqual.exit.i, %Aig_RManTableHash.exit.i
  %.01321.i25 = phi ptr [ %22, %Aig_RManTableHash.exit.i ], [ %.pr, %Kit_TruthIsEqual.exit.i ]
  %40 = shl i32 %11, 2
  %41 = add i32 %40, 16
  %42 = getelementptr inbounds nuw i8, ptr %0, i64 32
  %43 = load i32, ptr %42, align 8, !tbaa !34
  %44 = mul nsw i32 %7, 3
  %45 = icmp eq i32 %43, %44
  br i1 %45, label %46, label %47

46:                                               ; preds = %Aig_RManTableLookup.exit.thread
  tail call void @Aig_RManTableResize(ptr noundef nonnull %0)
  br label %47

47:                                               ; preds = %46, %Aig_RManTableLookup.exit.thread
  %48 = getelementptr inbounds nuw i8, ptr %0, i64 40
  %49 = load ptr, ptr %48, align 8, !tbaa !19
  %50 = tail call ptr @Aig_MmFlexEntryFetch(ptr noundef %49, i32 noundef %41) #16
  %51 = load i32, ptr %42, align 8, !tbaa !34
  %52 = add nsw i32 %51, 1
  store i32 %52, ptr %42, align 8, !tbaa !34
  %53 = getelementptr inbounds nuw i8, ptr %50, i64 8
  store i32 %51, ptr %53, align 8, !tbaa !35
  %54 = getelementptr inbounds nuw i8, ptr %50, i64 12
  %55 = shl i32 %2, 27
  %56 = or disjoint i32 %55, 1
  store i32 %56, ptr %54, align 4
  store ptr null, ptr %50, align 8, !tbaa !30
  %57 = getelementptr inbounds nuw i8, ptr %50, i64 16
  %58 = sext i32 %11 to i64
  %59 = shl nsw i64 %58, 2
  tail call void @llvm.memcpy.p0.p0.i64(ptr noundef nonnull align 8 dereferenceable(1) %57, ptr noundef nonnull align 4 dereferenceable(1) %1, i64 %59, i1 false)
  store ptr %50, ptr %.01321.i25, align 8, !tbaa !26
  br label %60

60:                                               ; preds = %47, %Aig_RManTableLookup.exit
  %.0 = phi i32 [ 0, %Aig_RManTableLookup.exit ], [ 1, %47 ]
  ret i32 %.0
}